target datalayout = "e-m:e-p270:32:32-p271:32:32-p272:64:64-i64:64-i128:128-f80:128-n8:16:32:64-S128"
target triple = "x86_64-pc-linux-gnu"

%struct._zval_struct = type { %union._zend_value, %union.anon.0, %union.anon.3 }
%union._zend_value = type { i64 }
%union.anon.0 = type { i32 }
%union.anon.3 = type { i32 }
%struct._php_stream = type { ptr, ptr, %struct._php_stream_filter_chain, %struct._php_stream_filter_chain, ptr, ptr, %struct._zval_struct, i16, [16 x i8], i32, ptr, ptr, ptr, ptr, i64, ptr, i64, i64, i64, i64, ptr }
%struct._php_stream_filter_chain = type { ptr, ptr, ptr }
%struct._php_ftp_dirstream_data = type { ptr, ptr, ptr }

; Function Attrs: nounwind uwtable
define internal i32 @php_ftp_dirstream_close(ptr noundef %0, i32 noundef %1) #0 {
  %3 = alloca ptr, align 8
  %4 = alloca i32, align 4
  %5 = alloca ptr, align 8
  store ptr %0, ptr %3, align 8, !tbaa !17
  store i32 %1, ptr %4, align 4, !tbaa !11
  call void @llvm.lifetime.start.p0(i64 8, ptr %5) #11
  %6 = load ptr, ptr %3, align 8, !tbaa !17
  %7 = getelementptr inbounds nuw %struct._php_stream, ptr %6, i32 0, i32 1
  %8 = load ptr, ptr %7, align 8, !tbaa !109
  store ptr %8, ptr %5, align 8, !tbaa !101
  %9 = load ptr, ptr %5, align 8, !tbaa !101
  %10 = getelementptr inbounds nuw %struct._php_ftp_dirstream_data, ptr %9, i32 0, i32 1
  %11 = load ptr, ptr %10, align 8, !tbaa !105
  %12 = icmp ne ptr %11, null
  br i1 %12, label %13, label %20

13:                                               ; preds = %2
  %14 = load ptr, ptr %5, align 8, !tbaa !101
  %15 = getelementptr inbounds nuw %struct._php_ftp_dirstream_data, ptr %14, i32 0, i32 1
  %16 = load ptr, ptr %15, align 8, !tbaa !105
  %17 = call i32 @_php_stream_free(ptr noundef %16, i32 noundef 3)
  %18 = load ptr, ptr %5, align 8, !tbaa !101
  %19 = getelementptr inbounds nuw %struct._php_ftp_dirstream_data, ptr %18, i32 0, i32 1
  store ptr null, ptr %19, align 8, !tbaa !105
  br label %20

20:                                               ; preds = %13, %2
  %21 = load ptr, ptr %5, align 8, !tbaa !101
  %22 = getelementptr inbounds nuw %struct._php_ftp_dirstream_data, ptr %21, i32 0, i32 0
  %23 = load ptr, ptr %22, align 8, !tbaa !103
  %24 = call i32 @_php_stream_free(ptr noundef %23, i32 noundef 3)
  %25 = load ptr, ptr %5, align 8, !tbaa !101
  %26 = getelementptr inbounds nuw %struct._php_ftp_dirstream_data, ptr %25, i32 0, i32 0
  store ptr null, ptr %26, align 8, !tbaa !103
  %27 = load ptr, ptr %5, align 8, !tbaa !101
  call void @_efree(ptr noundef %27)
  %28 = load ptr, ptr %3, align 8, !tbaa !17
  %29 = getelementptr inbounds nuw %struct._php_stream, ptr %28, i32 0, i32 1
  store ptr null, ptr %29, align 8, !tbaa !109
  call void @llvm.lifetime.end.p0(i64 8, ptr %5) #11
  ret i32 0
}