; Function Attrs: nounwind uwtable
define internal noundef i32 @php_ftp_dirstream_close(ptr noundef captures(none) %0, i32 %1) #0 {
  %3 = getelementptr inbounds nuw i8, ptr %0, i64 8
  %4 = load ptr, ptr %3, align 8, !tbaa !81
  %5 = getelementptr inbounds nuw i8, ptr %4, i64 8
  %6 = load ptr, ptr %5, align 8, !tbaa !79
  %.not = icmp eq ptr %6, null
  br i1 %.not, label %9, label %7

7:                                                ; preds = %2
  %8 = tail call i32 @_php_stream_free(ptr noundef nonnull %6, i32 noundef 3) #15
  store ptr null, ptr %5, align 8, !tbaa !79
  br label %9

9:                                                ; preds = %7, %2
  %10 = load ptr, ptr %4, align 8, !tbaa !77
  %11 = tail call i32 @_php_stream_free(ptr noundef %10, i32 noundef 3) #15
  store ptr null, ptr %4, align 8, !tbaa !77
  tail call void @_efree(ptr noundef nonnull %4) #15
  store ptr null, ptr %3, align 8, !tbaa !81
  ret i32 0
}